target datalayout = "e-m:e-p270:32:32-p271:32:32-p272:64:64-i64:64-i128:128-f80:128-n8:16:32:64-S128"
target triple = "x86_64-pc-linux-gnu"

%struct.HashBuildState = type { ptr, double, ptr }
%struct.RelationData = type { %struct.RelFileLocator, ptr, i32, i32, i8, i8, i8, i8, i8, i32, i32, i32, i32, ptr, ptr, i32, %struct.LockInfoData, ptr, ptr, ptr, ptr, ptr, i8, ptr, ptr, ptr, ptr, ptr, ptr, i32, ptr, i8, ptr, ptr, i32, i8, i32, ptr, i8, ptr, ptr, ptr, ptr, ptr, ptr, ptr, i32, ptr, ptr, ptr, ptr, ptr, ptr, ptr, ptr, ptr, ptr, ptr, ptr, ptr, ptr, ptr, ptr, ptr, ptr, ptr, i32, i8, ptr }
%struct.RelFileLocator = type { i32, i32, i32 }
%struct.LockInfoData = type { %struct.LockRelId }
%struct.LockRelId = type { i32, i32 }
%struct.FormData_pg_class = type { i32, %struct.nameData, i32, i32, i32, i32, i32, i32, i32, i32, float, i32, i32, i8, i8, i8, i8, i16, i16, i8, i8, i8, i8, i8, i8, i8, i8, i32, i32, i32 }
%struct.nameData = type { [64 x i8] }
%struct.IndexBuildResult = type { double, double }
%struct.TableAmRoutine = type { i32, ptr, ptr, ptr, ptr, ptr, ptr, ptr, ptr, ptr, ptr, ptr, ptr, ptr, ptr, ptr, ptr, ptr, ptr, ptr, ptr, ptr, ptr, ptr, ptr, ptr, ptr, ptr, ptr, ptr, ptr, ptr, ptr, ptr, ptr, ptr, ptr, ptr, ptr, ptr, ptr, ptr, ptr, ptr, ptr, ptr }

@.str = private unnamed_addr constant [33 x i8] c"index \22%s\22 already contains data\00", align 1
@.str.1 = private unnamed_addr constant [7 x i8] c"hash.c\00", align 1
@__func__.hashbuild = private unnamed_addr constant [10 x i8] c"hashbuild\00", align 1
@maintenance_work_mem = external global i32, align 4
@NBuffers = external global i32, align 4
@NLocBuffer = external global i32, align 4

; Function Attrs: inlinehint nounwind uwtable
define internal double @table_index_build_scan(ptr noundef %0, ptr noundef %1, ptr noundef %2, i1 noundef zeroext %3, i1 noundef zeroext %4, ptr noundef %5, ptr noundef %6, ptr noundef %7) #2 {
  %9 = alloca ptr, align 8
  %10 = alloca ptr, align 8
  %11 = alloca ptr, align 8
  %12 = alloca i8, align 1
  %13 = alloca i8, align 1
  %14 = alloca ptr, align 8
  %15 = alloca ptr, align 8
  %16 = alloca ptr, align 8
  store ptr %0, ptr %9, align 8
  store ptr %1, ptr %10, align 8
  store ptr %2, ptr %11, align 8
  %17 = zext i1 %3 to i8
  store i8 %17, ptr %12, align 1
  %18 = zext i1 %4 to i8
  store i8 %18, ptr %13, align 1
  store ptr %5, ptr %14, align 8
  store ptr %6, ptr %15, align 8
  store ptr %7, ptr %16, align 8
  %19 = load ptr, ptr %9, align 8
  %20 = getelementptr inbounds nuw %struct.RelationData, ptr %19, i32 0, i32 47
  %21 = load ptr, ptr %20, align 8
  %22 = getelementptr inbounds nuw %struct.TableAmRoutine, ptr %21, i32 0, i32 35
  %23 = load ptr, ptr %22, align 8
  %24 = load ptr, ptr %9, align 8
  %25 = load ptr, ptr %10, align 8
  %26 = load ptr, ptr %11, align 8
  %27 = load i8, ptr %12, align 1, !range !4, !noundef !5
  %28 = trunc i8 %27 to i1
  %29 = load i8, ptr %13, align 1, !range !4, !noundef !5
  %30 = trunc i8 %29 to i1
  %31 = load ptr, ptr %14, align 8
  %32 = load ptr, ptr %15, align 8
  %33 = load ptr, ptr %16, align 8
  %34 = call double %23(ptr noundef %24, ptr noundef %25, ptr noundef %26, i1 noundef zeroext %28, i1 noundef zeroext false, i1 noundef zeroext %30, i32 noundef 0, i32 noundef -1, ptr noundef %31, ptr noundef %32, ptr noundef %33)
  ret double %34
}

; Function Attrs: nounwind uwtable
define dso_local ptr @hashbuild(ptr noundef %0, ptr noundef %1, ptr noundef %2) #0 {
  %4 = alloca ptr, align 8
  %5 = alloca ptr, align 8
  %6 = alloca ptr, align 8
  %7 = alloca ptr, align 8
  %8 = alloca i32, align 4
  %9 = alloca double, align 8
  %10 = alloca double, align 8
  %11 = alloca i32, align 4
  %12 = alloca i64, align 8
  %13 = alloca %struct.HashBuildState, align 8
  store ptr %0, ptr %4, align 8
  store ptr %1, ptr %5, align 8
  store ptr %2, ptr %6, align 8
  call void @llvm.lifetime.start.p0(i64 8, ptr %7) #6
  call void @llvm.lifetime.start.p0(i64 4, ptr %8) #6
  call void @llvm.lifetime.start.p0(i64 8, ptr %9) #6
  call void @llvm.lifetime.start.p0(i64 8, ptr %10) #6
  call void @llvm.lifetime.start.p0(i64 4, ptr %11) #6
  call void @llvm.lifetime.start.p0(i64 8, ptr %12) #6
  call void @llvm.lifetime.start.p0(i64 24, ptr %13) #6
  %14 = load ptr, ptr %5, align 8
  %15 = call i32 @RelationGetNumberOfBlocksInFork(ptr noundef %14, i32 noundef 0)
  %16 = icmp ne i32 %15, 0
  br i1 %16, label %17, label %34

17:                                               ; preds = %3
  br label %18

18:                                               ; preds = %17
  br i1 true, label %19, label %21

19:                                               ; preds = %18
  %20 = call zeroext i1 @errstart_cold(i32 noundef 21, ptr noundef null) #7
  br i1 %20, label %23, label %31

21:                                               ; preds = %18
  %22 = call zeroext i1 @errstart(i32 noundef 21, ptr noundef null)
  br i1 %22, label %23, label %31

23:                                               ; preds = %21, %19
  %24 = load ptr, ptr %5, align 8
  %25 = getelementptr inbounds nuw %struct.RelationData, ptr %24, i32 0, i32 13
  %26 = load ptr, ptr %25, align 8
  %27 = getelementptr inbounds nuw %struct.FormData_pg_class, ptr %26, i32 0, i32 1
  %28 = getelementptr inbounds nuw %struct.nameData, ptr %27, i32 0, i32 0
  %29 = getelementptr inbounds [64 x i8], ptr %28, i64 0, i64 0
  %30 = call i32 (ptr, ...) @errmsg_internal(ptr noundef @.str, ptr noundef %29)
  call void @errfinish(ptr noundef @.str.1, i32 noundef 135, ptr noundef @__func__.hashbuild)
  br label %31

31:                                               ; preds = %23, %21, %19
  unreachable

32:                                               ; No predecessors!
  br label %33

33:                                               ; preds = %32
  br label %34

34:                                               ; preds = %33, %3
  %35 = load ptr, ptr %4, align 8
  call void @estimate_rel_size(ptr noundef %35, ptr noundef null, ptr noundef %8, ptr noundef %9, ptr noundef %10)
  %36 = load ptr, ptr %5, align 8
  %37 = load double, ptr %9, align 8
  %38 = call i32 @_hash_init(ptr noundef %36, double noundef %37, i32 noundef 0)
  store i32 %38, ptr %11, align 4
  %39 = load i32, ptr @maintenance_work_mem, align 4
  %40 = sext i32 %39 to i64
  %41 = mul i64 %40, 1024
  %42 = udiv i64 %41, 8192
  store i64 %42, ptr %12, align 8
  %43 = load ptr, ptr %5, align 8
  %44 = getelementptr inbounds nuw %struct.RelationData, ptr %43, i32 0, i32 13
  %45 = load ptr, ptr %44, align 8
  %46 = getelementptr inbounds nuw %struct.FormData_pg_class, ptr %45, i32 0, i32 15
  %47 = load i8, ptr %46, align 2
  %48 = sext i8 %47 to i32
  %49 = icmp ne i32 %48, 116
  br i1 %49, label %50, label %62

50:                                               ; preds = %34
  %51 = load i64, ptr %12, align 8
  %52 = load i32, ptr @NBuffers, align 4
  %53 = sext i32 %52 to i64
  %54 = icmp ult i64 %51, %53
  br i1 %54, label %55, label %57

55:                                               ; preds = %50
  %56 = load i64, ptr %12, align 8
  br label %60

57:                                               ; preds = %50
  %58 = load i32, ptr @NBuffers, align 4
  %59 = sext i32 %58 to i64
  br label %60

60:                                               ; preds = %57, %55
  %61 = phi i64 [ %56, %55 ], [ %59, %57 ]
  store i64 %61, ptr %12, align 8
  br label %74

62:                                               ; preds = %34
  %63 = load i64, ptr %12, align 8
  %64 = load i32, ptr @NLocBuffer, align 4
  %65 = sext i32 %64 to i64
  %66 = icmp ult i64 %63, %65
  br i1 %66, label %67, label %69

67:                                               ; preds = %62
  %68 = load i64, ptr %12, align 8
  br label %72

69:                                               ; preds = %62
  %70 = load i32, ptr @NLocBuffer, align 4
  %71 = sext i32 %70 to i64
  br label %72

72:                                               ; preds = %69, %67
  %73 = phi i64 [ %68, %67 ], [ %71, %69 ]
  store i64 %73, ptr %12, align 8
  br label %74

74:                                               ; preds = %72, %60
  %75 = load i32, ptr %11, align 4
  %76 = zext i32 %75 to i64
  %77 = load i64, ptr %12, align 8
  %78 = icmp uge i64 %76, %77
  br i1 %78, label %79, label %85

79:                                               ; preds = %74
  %80 = load ptr, ptr %4, align 8
  %81 = load ptr, ptr %5, align 8
  %82 = load i32, ptr %11, align 4
  %83 = call ptr @_h_spoolinit(ptr noundef %80, ptr noundef %81, i32 noundef %82)
  %84 = getelementptr inbounds nuw %struct.HashBuildState, ptr %13, i32 0, i32 0
  store ptr %83, ptr %84, align 8
  br label %87

85:                                               ; preds = %74
  %86 = getelementptr inbounds nuw %struct.HashBuildState, ptr %13, i32 0, i32 0
  store ptr null, ptr %86, align 8
  br label %87

87:                                               ; preds = %85, %79
  %88 = getelementptr inbounds nuw %struct.HashBuildState, ptr %13, i32 0, i32 1
  store double 0.000000e+00, ptr %88, align 8
  %89 = load ptr, ptr %4, align 8
  %90 = getelementptr inbounds nuw %struct.HashBuildState, ptr %13, i32 0, i32 2
  store ptr %89, ptr %90, align 8
  %91 = load ptr, ptr %4, align 8
  %92 = load ptr, ptr %5, align 8
  %93 = load ptr, ptr %6, align 8
  %94 = call double @table_index_build_scan(ptr noundef %91, ptr noundef %92, ptr noundef %93, i1 noundef zeroext true, i1 noundef zeroext true, ptr noundef @hashbuildCallback, ptr noundef %13, ptr noundef null)
  store double %94, ptr %9, align 8
  %95 = getelementptr inbounds nuw %struct.HashBuildState, ptr %13, i32 0, i32 1
  %96 = load double, ptr %95, align 8
  %97 = fptosi double %96 to i64
  call void @pgstat_progress_update_param(i32 noundef 11, i64 noundef %97)
  %98 = getelementptr inbounds nuw %struct.HashBuildState, ptr %13, i32 0, i32 0
  %99 = load ptr, ptr %98, align 8
  %100 = icmp ne ptr %99, null
  br i1 %100, label %101, label %108

101:                                              ; preds = %87
  %102 = getelementptr inbounds nuw %struct.HashBuildState, ptr %13, i32 0, i32 0
  %103 = load ptr, ptr %102, align 8
  %104 = getelementptr inbounds nuw %struct.HashBuildState, ptr %13, i32 0, i32 2
  %105 = load ptr, ptr %104, align 8
  call void @_h_indexbuild(ptr noundef %103, ptr noundef %105)
  %106 = getelementptr inbounds nuw %struct.HashBuildState, ptr %13, i32 0, i32 0
  %107 = load ptr, ptr %106, align 8
  call void @_h_spooldestroy(ptr noundef %107)
  br label %108

108:                                              ; preds = %101, %87
  %109 = call ptr @palloc(i64 noundef 16)
  store ptr %109, ptr %7, align 8
  %110 = load double, ptr %9, align 8
  %111 = load ptr, ptr %7, align 8
  %112 = getelementptr inbounds nuw %struct.IndexBuildResult, ptr %111, i32 0, i32 0
  store double %110, ptr %112, align 8
  %113 = getelementptr inbounds nuw %struct.HashBuildState, ptr %13, i32 0, i32 1
  %114 = load double, ptr %113, align 8
  %115 = load ptr, ptr %7, align 8
  %116 = getelementptr inbounds nuw %struct.IndexBuildResult, ptr %115, i32 0, i32 1
  store double %114, ptr %116, align 8
  %117 = load ptr, ptr %7, align 8
  call void @llvm.lifetime.end.p0(i64 24, ptr %13) #6
  call void @llvm.lifetime.end.p0(i64 8, ptr %12) #6
  call void @llvm.lifetime.end.p0(i64 4, ptr %11) #6
  call void @llvm.lifetime.end.p0(i64 8, ptr %10) #6
  call void @llvm.lifetime.end.p0(i64 8, ptr %9) #6
  call void @llvm.lifetime.end.p0(i64 4, ptr %8) #6
  call void @llvm.lifetime.end.p0(i64 8, ptr %7) #6
  ret ptr %117
}