; Function Attrs: nounwind uwtable
define dso_local noundef ptr @hashbuild(ptr noundef %0, ptr noundef %1, ptr noundef %2) #0 {
  %4 = alloca i32, align 4
  %5 = alloca double, align 8
  %6 = alloca double, align 8
  %7 = alloca %struct.HashBuildState, align 8
  call void @llvm.lifetime.start.p0(i64 4, ptr nonnull %4) #9
  call void @llvm.lifetime.start.p0(i64 8, ptr nonnull %5) #9
  call void @llvm.lifetime.start.p0(i64 8, ptr nonnull %6) #9
  call void @llvm.lifetime.start.p0(i64 24, ptr nonnull %7) #9
  %8 = tail call i32 @RelationGetNumberOfBlocksInFork(ptr noundef %1, i32 noundef 0) #9
  %.not = icmp eq i32 %8, 0
  br i1 %.not, label %15, label %9

9:                                                ; preds = %3
  %10 = tail call zeroext i1 @errstart_cold(i32 noundef 21, ptr noundef null) #10
  tail call void @llvm.assume(i1 %10)
  %11 = getelementptr inbounds nuw i8, ptr %1, i64 56
  %12 = load ptr, ptr %11, align 8
  %13 = getelementptr inbounds nuw i8, ptr %12, i64 4
  %14 = tail call i32 (ptr, ...) @errmsg_internal(ptr noundef nonnull @.str, ptr noundef nonnull %13) #9
  tail call void @errfinish(ptr noundef nonnull @.str.1, i32 noundef 135, ptr noundef nonnull @__func__.hashbuild) #9
  unreachable

15:                                               ; preds = %3
  call void @estimate_rel_size(ptr noundef %0, ptr noundef null, ptr noundef nonnull %4, ptr noundef nonnull %5, ptr noundef nonnull %6) #9
  %16 = load double, ptr %5, align 8
  %17 = call i32 @_hash_init(ptr noundef %1, double noundef %16, i32 noundef 0) #9
  %18 = load i32, ptr @maintenance_work_mem, align 4
  %19 = sext i32 %18 to i64
  %20 = lshr i64 %19, 3
  %21 = and i64 %20, 2251799813685247
  %22 = getelementptr inbounds nuw i8, ptr %1, i64 56
  %23 = load ptr, ptr %22, align 8
  %24 = getelementptr inbounds nuw i8, ptr %23, i64 114
  %25 = load i8, ptr %24, align 2
  %.not21 = icmp eq i8 %25, 116
  %NLocBuffer.val = load i32, ptr @NLocBuffer, align 4
  %NBuffers.val = load i32, ptr @NBuffers, align 4
  %26 = select i1 %.not21, i32 %NLocBuffer.val, i32 %NBuffers.val
  %27 = sext i32 %26 to i64
  %28 = call i64 @llvm.umin.i64(i64 %21, i64 %27)
  %29 = zext i32 %17 to i64
  %.not22 = icmp samesign ugt i64 %28, %29
  br i1 %.not22, label %32, label %30

30:                                               ; preds = %15
  %31 = call ptr @_h_spoolinit(ptr noundef %0, ptr noundef nonnull %1, i32 noundef %17) #9
  br label %32

32:                                               ; preds = %15, %30
  %storemerge = phi ptr [ %31, %30 ], [ null, %15 ]
  store ptr %storemerge, ptr %7, align 8
  %33 = getelementptr inbounds nuw i8, ptr %7, i64 8
  store double 0.000000e+00, ptr %33, align 8
  %34 = getelementptr inbounds nuw i8, ptr %7, i64 16
  store ptr %0, ptr %34, align 8
  %35 = getelementptr inbounds nuw i8, ptr %0, i64 320
  %36 = load ptr, ptr %35, align 8
  %37 = getelementptr inbounds nuw i8, ptr %36, i64 280
  %38 = load ptr, ptr %37, align 8
  %39 = call double %38(ptr noundef %0, ptr noundef nonnull %1, ptr noundef %2, i1 noundef zeroext true, i1 noundef zeroext false, i1 noundef zeroext true, i32 noundef 0, i32 noundef -1, ptr noundef nonnull @hashbuildCallback, ptr noundef nonnull %7, ptr noundef null) #9
  store double %39, ptr %5, align 8
  %40 = load double, ptr %33, align 8
  %41 = fptosi double %40 to i64
  call void @pgstat_progress_update_param(i32 noundef 11, i64 noundef %41) #9
  %42 = load ptr, ptr %7, align 8
  %.not23 = icmp eq ptr %42, null
  br i1 %.not23, label %46, label %43

43:                                               ; preds = %32
  %44 = load ptr, ptr %34, align 8
  call void @_h_indexbuild(ptr noundef nonnull %42, ptr noundef %44) #9
  %45 = load ptr, ptr %7, align 8
  call void @_h_spooldestroy(ptr noundef %45) #9
  br label %46

46:                                               ; preds = %43, %32
  %47 = call ptr @palloc(i64 noundef 16) #9
  %48 = load double, ptr %5, align 8
  store double %48, ptr %47, align 8
  %49 = load double, ptr %33, align 8
  %50 = getelementptr inbounds nuw i8, ptr %47, i64 8
  store double %49, ptr %50, align 8
  call void @llvm.lifetime.end.p0(i64 24, ptr nonnull %7) #9
  call void @llvm.lifetime.end.p0(i64 8, ptr nonnull %6) #9
  call void @llvm.lifetime.end.p0(i64 8, ptr nonnull %5) #9
  call void @llvm.lifetime.end.p0(i64 4, ptr nonnull %4) #9
  ret ptr %47
}